; ModuleID = '57/2187.c'
source_filename = "57/2187.c"
target datalayout = "e-m:e-p270:32:32-p271:32:32-p272:64:64-i64:64-f80:128-n8:16:32:64-S128"
target triple = "x86_64-pc-linux-gnu"

@.str = private unnamed_addr constant [3 x i8] c"%d\00", align 1
@.str.1 = private unnamed_addr constant [3 x i8] c"%s\00", align 1
@.str.2 = private unnamed_addr constant [3 x i8] c"%c\00", align 1
@.str.3 = private unnamed_addr constant [2 x i8] c"\0A\00", align 1

; Function Attrs: noinline nounwind uwtable
define dso_local void @main() #0 {
  %1 = alloca i32, align 4
  %2 = alloca i32, align 4
  %3 = alloca i32, align 4
  %4 = alloca [50 x [50 x i8]], align 16
  %5 = call i32 (i8*, ...) @__isoc99_scanf(i8* getelementptr inbounds ([3 x i8], [3 x i8]* @.str, i64 0, i64 0), i32* %1)
  store i32 0, i32* %2, align 4
  br label %6

6:                                                ; preds = %16, %0
  %7 = load i32, i32* %2, align 4
  %8 = load i32, i32* %1, align 4
  %9 = icmp slt i32 %7, %8
  br i1 %9, label %10, label %19

10:                                               ; preds = %6
  %11 = load i32, i32* %2, align 4
  %12 = sext i32 %11 to i64
  %13 = getelementptr inbounds [50 x [50 x i8]], [50 x [50 x i8]]* %4, i64 0, i64 %12
  %14 = getelementptr inbounds [50 x i8], [50 x i8]* %13, i64 0, i64 0
  %15 = call i32 (i8*, ...) @__isoc99_scanf(i8* getelementptr inbounds ([3 x i8], [3 x i8]* @.str.1, i64 0, i64 0), i8* %14)
  br label %16

16:                                               ; preds = %10
  %17 = load i32, i32* %2, align 4
  %18 = add nsw i32 %17, 1
  store i32 %18, i32* %2, align 4
  br label %6

19:                                               ; preds = %6
  store i32 0, i32* %2, align 4
  br label %20

20:                                               ; preds = %199, %19
  %21 = load i32, i32* %2, align 4
  %22 = load i32, i32* %1, align 4
  %23 = icmp slt i32 %21, %22
  br i1 %23, label %24, label %202

24:                                               ; preds = %20
  %25 = load i32, i32* %2, align 4
  %26 = sext i32 %25 to i64
  %27 = getelementptr inbounds [50 x [50 x i8]], [50 x [50 x i8]]* %4, i64 0, i64 %26
  %28 = load i32, i32* %2, align 4
  %29 = sext i32 %28 to i64
  %30 = getelementptr inbounds [50 x [50 x i8]], [50 x [50 x i8]]* %4, i64 0, i64 %29
  %31 = getelementptr inbounds [50 x i8], [50 x i8]* %30, i64 0, i64 0
  %32 = call i64 @strlen(i8* %31) #3
  %33 = sub i64 %32, 1
  %34 = getelementptr inbounds [50 x i8], [50 x i8]* %27, i64 0, i64 %33
  %35 = load i8, i8* %34, align 1
  %36 = sext i8 %35 to i32
  %37 = icmp eq i32 %36, 121
  br i1 %37, label %38, label %77

38:                                               ; preds = %24
  %39 = load i32, i32* %2, align 4
  %40 = sext i32 %39 to i64
  %41 = getelementptr inbounds [50 x [50 x i8]], [50 x [50 x i8]]* %4, i64 0, i64 %40
  %42 = load i32, i32* %2, align 4
  %43 = sext i32 %42 to i64
  %44 = getelementptr inbounds [50 x [50 x i8]], [50 x [50 x i8]]* %4, i64 0, i64 %43
  %45 = getelementptr inbounds [50 x i8], [50 x i8]* %44, i64 0, i64 0
  %46 = call i64 @strlen(i8* %45) #3
  %47 = sub i64 %46, 2
  %48 = getelementptr inbounds [50 x i8], [50 x i8]* %41, i64 0, i64 %47
  %49 = load i8, i8* %48, align 1
  %50 = sext i8 %49 to i32
  %51 = icmp eq i32 %50, 108
  br i1 %51, label %52, label %77

52:                                               ; preds = %38
  store i32 0, i32* %3, align 4
  br label %53

53:                                               ; preds = %73, %52
  %54 = load i32, i32* %3, align 4
  %55 = sext i32 %54 to i64
  %56 = load i32, i32* %2, align 4
  %57 = sext i32 %56 to i64
  %58 = getelementptr inbounds [50 x [50 x i8]], [50 x [50 x i8]]* %4, i64 0, i64 %57
  %59 = getelementptr inbounds [50 x i8], [50 x i8]* %58, i64 0, i64 0
  %60 = call i64 @strlen(i8* %59) #3
  %61 = sub i64 %60, 2
  %62 = icmp ult i64 %55, %61
  br i1 %62, label %63, label %76

63:                                               ; preds = %53
  %64 = load i32, i32* %2, align 4
  %65 = sext i32 %64 to i64
  %66 = getelementptr inbounds [50 x [50 x i8]], [50 x [50 x i8]]* %4, i64 0, i64 %65
  %67 = load i32, i32* %3, align 4
  %68 = sext i32 %67 to i64
  %69 = getelementptr inbounds [50 x i8], [50 x i8]* %66, i64 0, i64 %68
  %70 = load i8, i8* %69, align 1
  %71 = sext i8 %70 to i32
  %72 = call i32 (i8*, ...) @printf(i8* getelementptr inbounds ([3 x i8], [3 x i8]* @.str.2, i64 0, i64 0), i32 %71)
  br label %73

73:                                               ; preds = %63
  %74 = load i32, i32* %3, align 4
  %75 = add nsw i32 %74, 1
  store i32 %75, i32* %3, align 4
  br label %53

76:                                               ; preds = %53
  br label %77

77:                                               ; preds = %76, %38, %24
  %78 = load i32, i32* %2, align 4
  %79 = sext i32 %78 to i64
  %80 = getelementptr inbounds [50 x [50 x i8]], [50 x [50 x i8]]* %4, i64 0, i64 %79
  %81 = load i32, i32* %2, align 4
  %82 = sext i32 %81 to i64
  %83 = getelementptr inbounds [50 x [50 x i8]], [50 x [50 x i8]]* %4, i64 0, i64 %82
  %84 = getelementptr inbounds [50 x i8], [50 x i8]* %83, i64 0, i64 0
  %85 = call i64 @strlen(i8* %84) #3
  %86 = sub i64 %85, 1
  %87 = getelementptr inbounds [50 x i8], [50 x i8]* %80, i64 0, i64 %86
  %88 = load i8, i8* %87, align 1
  %89 = sext i8 %88 to i32
  %90 = icmp eq i32 %89, 114
  br i1 %90, label %91, label %130

91:                                               ; preds = %77
  %92 = load i32, i32* %2, align 4
  %93 = sext i32 %92 to i64
  %94 = getelementptr inbounds [50 x [50 x i8]], [50 x [50 x i8]]* %4, i64 0, i64 %93
  %95 = load i32, i32* %2, align 4
  %96 = sext i32 %95 to i64
  %97 = getelementptr inbounds [50 x [50 x i8]], [50 x [50 x i8]]* %4, i64 0, i64 %96
  %98 = getelementptr inbounds [50 x i8], [50 x i8]* %97, i64 0, i64 0
  %99 = call i64 @strlen(i8* %98) #3
  %100 = sub i64 %99, 2
  %101 = getelementptr inbounds [50 x i8], [50 x i8]* %94, i64 0, i64 %100
  %102 = load i8, i8* %101, align 1
  %103 = sext i8 %102 to i32
  %104 = icmp eq i32 %103, 101
  br i1 %104, label %105, label %130

105:                                              ; preds = %91
  store i32 0, i32* %3, align 4
  br label %106

106:                                              ; preds = %126, %105
  %107 = load i32, i32* %3, align 4
  %108 = sext i32 %107 to i64
  %109 = load i32, i32* %2, align 4
  %110 = sext i32 %109 to i64
  %111 = getelementptr inbounds [50 x [50 x i8]], [50 x [50 x i8]]* %4, i64 0, i64 %110
  %112 = getelementptr inbounds [50 x i8], [50 x i8]* %111, i64 0, i64 0
  %113 = call i64 @strlen(i8* %112) #3
  %114 = sub i64 %113, 2
  %115 = icmp ult i64 %108, %114
  br i1 %115, label %116, label %129

116:                                              ; preds = %106
  %117 = load i32, i32* %2, align 4
  %118 = sext i32 %117 to i64
  %119 = getelementptr inbounds [50 x [50 x i8]], [50 x [50 x i8]]* %4, i64 0, i64 %118
  %120 = load i32, i32* %3, align 4
  %121 = sext i32 %120 to i64
  %122 = getelementptr inbounds [50 x i8], [50 x i8]* %119, i64 0, i64 %121
  %123 = load i8, i8* %122, align 1
  %124 = sext i8 %123 to i32
  %125 = call i32 (i8*, ...) @printf(i8* getelementptr inbounds ([3 x i8], [3 x i8]* @.str.2, i64 0, i64 0), i32 %124)
  br label %126

126:                                              ; preds = %116
  %127 = load i32, i32* %3, align 4
  %128 = add nsw i32 %127, 1
  store i32 %128, i32* %3, align 4
  br label %106

129:                                              ; preds = %106
  br label %130

130:                                              ; preds = %129, %91, %77
  %131 = load i32, i32* %2, align 4
  %132 = sext i32 %131 to i64
  %133 = getelementptr inbounds [50 x [50 x i8]], [50 x [50 x i8]]* %4, i64 0, i64 %132
  %134 = load i32, i32* %2, align 4
  %135 = sext i32 %134 to i64
  %136 = getelementptr inbounds [50 x [50 x i8]], [50 x [50 x i8]]* %4, i64 0, i64 %135
  %137 = getelementptr inbounds [50 x i8], [50 x i8]* %136, i64 0, i64 0
  %138 = call i64 @strlen(i8* %137) #3
  %139 = sub i64 %138, 1
  %140 = getelementptr inbounds [50 x i8], [50 x i8]* %133, i64 0, i64 %139
  %141 = load i8, i8* %140, align 1
  %142 = sext i8 %141 to i32
  %143 = icmp eq i32 %142, 103
  br i1 %143, label %144, label %197

144:                                              ; preds = %130
  %145 = load i32, i32* %2, align 4
  %146 = sext i32 %145 to i64
  %147 = getelementptr inbounds [50 x [50 x i8]], [50 x [50 x i8]]* %4, i64 0, i64 %146
  %148 = load i32, i32* %2, align 4
  %149 = sext i32 %148 to i64
  %150 = getelementptr inbounds [50 x [50 x i8]], [50 x [50 x i8]]* %4, i64 0, i64 %149
  %151 = getelementptr inbounds [50 x i8], [50 x i8]* %150, i64 0, i64 0
  %152 = call i64 @strlen(i8* %151) #3
  %153 = sub i64 %152, 2
  %154 = getelementptr inbounds [50 x i8], [50 x i8]* %147, i64 0, i64 %153
  %155 = load i8, i8* %154, align 1
  %156 = sext i8 %155 to i32
  %157 = icmp eq i32 %156, 110
  br i1 %157, label %158, label %197

158:                                              ; preds = %144
  %159 = load i32, i32* %2, align 4
  %160 = sext i32 %159 to i64
  %161 = getelementptr inbounds [50 x [50 x i8]], [50 x [50 x i8]]* %4, i64 0, i64 %160
  %162 = load i32, i32* %2, align 4
  %163 = sext i32 %162 to i64
  %164 = getelementptr inbounds [50 x [50 x i8]], [50 x [50 x i8]]* %4, i64 0, i64 %163
  %165 = getelementptr inbounds [50 x i8], [50 x i8]* %164, i64 0, i64 0
  %166 = call i64 @strlen(i8* %165) #3
  %167 = sub i64 %166, 3
  %168 = getelementptr inbounds [50 x i8], [50 x i8]* %161, i64 0, i64 %167
  %169 = load i8, i8* %168, align 1
  %170 = sext i8 %169 to i32
  %171 = icmp eq i32 %170, 105
  br i1 %171, label %172, label %197

172:                                              ; preds = %158
  store i32 0, i32* %3, align 4
  br label %173

173:                                              ; preds = %193, %172
  %174 = load i32, i32* %3, align 4
  %175 = sext i32 %174 to i64
  %176 = load i32, i32* %2, align 4
  %177 = sext i32 %176 to i64
  %178 = getelementptr inbounds [50 x [50 x i8]], [50 x [50 x i8]]* %4, i64 0, i64 %177
  %179 = getelementptr inbounds [50 x i8], [50 x i8]* %178, i64 0, i64 0
  %180 = call i64 @strlen(i8* %179) #3
  %181 = sub i64 %180, 3
  %182 = icmp ult i64 %175, %181
  br i1 %182, label %183, label %196

183:                                              ; preds = %173
  %184 = load i32, i32* %2, align 4
  %185 = sext i32 %184 to i64
  %186 = getelementptr inbounds [50 x [50 x i8]], [50 x [50 x i8]]* %4, i64 0, i64 %185
  %187 = load i32, i32* %3, align 4
  %188 = sext i32 %187 to i64
  %189 = getelementptr inbounds [50 x i8], [50 x i8]* %186, i64 0, i64 %188
  %190 = load i8, i8* %189, align 1
  %191 = sext i8 %190 to i32
  %192 = call i32 (i8*, ...) @printf(i8* getelementptr inbounds ([3 x i8], [3 x i8]* @.str.2, i64 0, i64 0), i32 %191)
  br label %193

193:                                              ; preds = %183
  %194 = load i32, i32* %3, align 4
  %195 = add nsw i32 %194, 1
  store i32 %195, i32* %3, align 4
  br label %173

196:                                              ; preds = %173
  br label %197

197:                                              ; preds = %196, %158, %144, %130
  %198 = call i32 (i8*, ...) @printf(i8* getelementptr inbounds ([2 x i8], [2 x i8]* @.str.3, i64 0, i64 0))
  br label %199

199:                                              ; preds = %197
  %200 = load i32, i32* %2, align 4
  %201 = add nsw i32 %200, 1
  store i32 %201, i32* %2, align 4
  br label %20

202:                                              ; preds = %20
  ret void
}

declare dso_local i32 @__isoc99_scanf(i8*, ...) #1

; Function Attrs: nounwind readonly
declare dso_local i64 @strlen(i8*) #2

declare dso_local i32 @printf(i8*, ...) #1


!llvm.module.flags = !{!0}
!llvm.ident = !{!1}

!0 = !{i32 1, !"wchar_size", i32 4}
!1 = !{!"clang version 10.0.0-4ubuntu1 "}
